target datalayout = "e-m:e-p270:32:32-p271:32:32-p272:64:64-i64:64-i128:128-f80:128-n8:16:32:64-S128"
target triple = "x86_64-pc-linux-gnu"

%struct.ff_regs = type { i32, ptr }
%struct.ff_reg = type { %struct.re_pattern_buffer, i32 }
%struct.re_pattern_buffer = type { ptr, i64, i64, i64, ptr, ptr, i64, i8 }
%struct.regmatch_t = type { i32, i32 }

@sane_ctype = external constant [256 x i8], align 16

; Function Attrs: inlinehint nounwind uwtable
define internal i32 @regexec_buf(ptr noundef %0, ptr noundef %1, i64 noundef %2, i64 noundef %3, ptr noundef %4, i32 noundef %5) #6 {
  %7 = alloca ptr, align 8
  %8 = alloca ptr, align 8
  %9 = alloca i64, align 8
  %10 = alloca i64, align 8
  %11 = alloca ptr, align 8
  %12 = alloca i32, align 4
  store ptr %0, ptr %7, align 8, !tbaa !90
  store ptr %1, ptr %8, align 8, !tbaa !16
  store i64 %2, ptr %9, align 8, !tbaa !18
  store i64 %3, ptr %10, align 8, !tbaa !18
  store ptr %4, ptr %11, align 8, !tbaa !32
  store i32 %5, ptr %12, align 4, !tbaa !25
  %13 = load ptr, ptr %11, align 8, !tbaa !32
  %14 = getelementptr inbounds %struct.regmatch_t, ptr %13, i64 0
  %15 = getelementptr inbounds nuw %struct.regmatch_t, ptr %14, i32 0, i32 0
  store i32 0, ptr %15, align 4, !tbaa !77
  %16 = load i64, ptr %9, align 8, !tbaa !18
  %17 = trunc i64 %16 to i32
  %18 = load ptr, ptr %11, align 8, !tbaa !32
  %19 = getelementptr inbounds %struct.regmatch_t, ptr %18, i64 0
  %20 = getelementptr inbounds nuw %struct.regmatch_t, ptr %19, i32 0, i32 1
  store i32 %17, ptr %20, align 4, !tbaa !79
  %21 = load ptr, ptr %7, align 8, !tbaa !90
  %22 = load ptr, ptr %8, align 8, !tbaa !16
  %23 = load i64, ptr %10, align 8, !tbaa !18
  %24 = load ptr, ptr %11, align 8, !tbaa !32
  %25 = load i32, ptr %12, align 4, !tbaa !25
  %26 = or i32 %25, 4
  %27 = call i32 @regexec(ptr noundef %21, ptr noundef %22, i64 noundef %23, ptr noundef %24, i32 noundef %26)
  ret i32 %27
}

; Function Attrs: nounwind uwtable
define internal i64 @ff_regexp(ptr noundef %0, i64 noundef %1, ptr noundef %2, i64 noundef %3, ptr noundef %4) #0 {
  %6 = alloca i64, align 8
  %7 = alloca ptr, align 8
  %8 = alloca i64, align 8
  %9 = alloca ptr, align 8
  %10 = alloca i64, align 8
  %11 = alloca ptr, align 8
  %12 = alloca ptr, align 8
  %13 = alloca [2 x %struct.regmatch_t], align 16
  %14 = alloca i32, align 4
  %15 = alloca i32, align 4
  %16 = alloca ptr, align 8
  %17 = alloca i32, align 4
  store ptr %0, ptr %7, align 8, !tbaa !16
  store i64 %1, ptr %8, align 8, !tbaa !18
  store ptr %2, ptr %9, align 8, !tbaa !16
  store i64 %3, ptr %10, align 8, !tbaa !18
  store ptr %4, ptr %11, align 8, !tbaa !32
  call void @llvm.lifetime.start.p0(i64 8, ptr %12) #9
  %18 = load ptr, ptr %11, align 8, !tbaa !32
  store ptr %18, ptr %12, align 8, !tbaa !63
  call void @llvm.lifetime.start.p0(i64 16, ptr %13) #9
  call void @llvm.lifetime.start.p0(i64 4, ptr %14) #9
  call void @llvm.lifetime.start.p0(i64 4, ptr %15) #9
  %19 = load i64, ptr %8, align 8, !tbaa !18
  %20 = icmp sgt i64 %19, 0
  br i1 %20, label %21, label %47

21:                                               ; preds = %5
  %22 = load ptr, ptr %7, align 8, !tbaa !16
  %23 = load i64, ptr %8, align 8, !tbaa !18
  %24 = sub nsw i64 %23, 1
  %25 = getelementptr inbounds i8, ptr %22, i64 %24
  %26 = load i8, ptr %25, align 1, !tbaa !30
  %27 = sext i8 %26 to i32
  %28 = icmp eq i32 %27, 10
  br i1 %28, label %29, label %47

29:                                               ; preds = %21
  %30 = load i64, ptr %8, align 8, !tbaa !18
  %31 = icmp sgt i64 %30, 1
  br i1 %31, label %32, label %43

32:                                               ; preds = %29
  %33 = load ptr, ptr %7, align 8, !tbaa !16
  %34 = load i64, ptr %8, align 8, !tbaa !18
  %35 = sub nsw i64 %34, 2
  %36 = getelementptr inbounds i8, ptr %33, i64 %35
  %37 = load i8, ptr %36, align 1, !tbaa !30
  %38 = sext i8 %37 to i32
  %39 = icmp eq i32 %38, 13
  br i1 %39, label %40, label %43

40:                                               ; preds = %32
  %41 = load i64, ptr %8, align 8, !tbaa !18
  %42 = sub nsw i64 %41, 2
  store i64 %42, ptr %8, align 8, !tbaa !18
  br label %46

43:                                               ; preds = %32, %29
  %44 = load i64, ptr %8, align 8, !tbaa !18
  %45 = add nsw i64 %44, -1
  store i64 %45, ptr %8, align 8, !tbaa !18
  br label %46

46:                                               ; preds = %43, %40
  br label %47

47:                                               ; preds = %46, %21, %5
  store i32 0, ptr %14, align 4, !tbaa !25
  br label %48

48:                                               ; preds = %79, %47
  %49 = load i32, ptr %14, align 4, !tbaa !25
  %50 = load ptr, ptr %12, align 8, !tbaa !63
  %51 = getelementptr inbounds nuw %struct.ff_regs, ptr %50, i32 0, i32 0
  %52 = load i32, ptr %51, align 8, !tbaa !65
  %53 = icmp slt i32 %49, %52
  br i1 %53, label %54, label %82

54:                                               ; preds = %48
  call void @llvm.lifetime.start.p0(i64 8, ptr %16) #9
  %55 = load ptr, ptr %12, align 8, !tbaa !63
  %56 = getelementptr inbounds nuw %struct.ff_regs, ptr %55, i32 0, i32 1
  %57 = load ptr, ptr %56, align 8, !tbaa !69
  %58 = load i32, ptr %14, align 4, !tbaa !25
  %59 = sext i32 %58 to i64
  %60 = getelementptr inbounds %struct.ff_reg, ptr %57, i64 %59
  store ptr %60, ptr %16, align 8, !tbaa !70
  %61 = load ptr, ptr %16, align 8, !tbaa !70
  %62 = getelementptr inbounds nuw %struct.ff_reg, ptr %61, i32 0, i32 0
  %63 = load ptr, ptr %7, align 8, !tbaa !16
  %64 = load i64, ptr %8, align 8, !tbaa !18
  %65 = getelementptr inbounds [2 x %struct.regmatch_t], ptr %13, i64 0, i64 0
  %66 = call i32 @regexec_buf(ptr noundef %62, ptr noundef %63, i64 noundef %64, i64 noundef 2, ptr noundef %65, i32 noundef 0)
  %67 = icmp ne i32 %66, 0
  br i1 %67, label %75, label %68

68:                                               ; preds = %54
  %69 = load ptr, ptr %16, align 8, !tbaa !70
  %70 = getelementptr inbounds nuw %struct.ff_reg, ptr %69, i32 0, i32 1
  %71 = load i32, ptr %70, align 8, !tbaa !71
  %72 = icmp ne i32 %71, 0
  br i1 %72, label %73, label %74

73:                                               ; preds = %68
  store i64 -1, ptr %6, align 8
  store i32 1, ptr %17, align 4
  br label %76

74:                                               ; preds = %68
  store i32 2, ptr %17, align 4
  br label %76

75:                                               ; preds = %54
  store i32 0, ptr %17, align 4
  br label %76

76:                                               ; preds = %75, %74, %73
  call void @llvm.lifetime.end.p0(i64 8, ptr %16) #9
  %77 = load i32, ptr %17, align 4
  switch i32 %77, label %150 [
    i32 0, label %78
    i32 2, label %82
  ]

78:                                               ; preds = %76
  br label %79

79:                                               ; preds = %78
  %80 = load i32, ptr %14, align 4, !tbaa !25
  %81 = add nsw i32 %80, 1
  store i32 %81, ptr %14, align 4, !tbaa !25
  br label %48, !llvm.loop !76

82:                                               ; preds = %76, %48
  %83 = load ptr, ptr %12, align 8, !tbaa !63
  %84 = getelementptr inbounds nuw %struct.ff_regs, ptr %83, i32 0, i32 0
  %85 = load i32, ptr %84, align 8, !tbaa !65
  %86 = load i32, ptr %14, align 4, !tbaa !25
  %87 = icmp sle i32 %85, %86
  br i1 %87, label %88, label %89

88:                                               ; preds = %82
  store i64 -1, ptr %6, align 8
  store i32 1, ptr %17, align 4
  br label %150

89:                                               ; preds = %82
  %90 = getelementptr inbounds [2 x %struct.regmatch_t], ptr %13, i64 0, i64 1
  %91 = getelementptr inbounds nuw %struct.regmatch_t, ptr %90, i32 0, i32 0
  %92 = load i32, ptr %91, align 8, !tbaa !77
  %93 = icmp sge i32 %92, 0
  %94 = select i1 %93, i32 1, i32 0
  store i32 %94, ptr %14, align 4, !tbaa !25
  %95 = load i32, ptr %14, align 4, !tbaa !25
  %96 = sext i32 %95 to i64
  %97 = getelementptr inbounds [2 x %struct.regmatch_t], ptr %13, i64 0, i64 %96
  %98 = getelementptr inbounds nuw %struct.regmatch_t, ptr %97, i32 0, i32 0
  %99 = load i32, ptr %98, align 8, !tbaa !77
  %100 = load ptr, ptr %7, align 8, !tbaa !16
  %101 = sext i32 %99 to i64
  %102 = getelementptr inbounds i8, ptr %100, i64 %101
  store ptr %102, ptr %7, align 8, !tbaa !16
  %103 = load i32, ptr %14, align 4, !tbaa !25
  %104 = sext i32 %103 to i64
  %105 = getelementptr inbounds [2 x %struct.regmatch_t], ptr %13, i64 0, i64 %104
  %106 = getelementptr inbounds nuw %struct.regmatch_t, ptr %105, i32 0, i32 1
  %107 = load i32, ptr %106, align 4, !tbaa !79
  %108 = load i32, ptr %14, align 4, !tbaa !25
  %109 = sext i32 %108 to i64
  %110 = getelementptr inbounds [2 x %struct.regmatch_t], ptr %13, i64 0, i64 %109
  %111 = getelementptr inbounds nuw %struct.regmatch_t, ptr %110, i32 0, i32 0
  %112 = load i32, ptr %111, align 8, !tbaa !77
  %113 = sub nsw i32 %107, %112
  store i32 %113, ptr %15, align 4, !tbaa !25
  %114 = load i32, ptr %15, align 4, !tbaa !25
  %115 = sext i32 %114 to i64
  %116 = load i64, ptr %10, align 8, !tbaa !18
  %117 = icmp sgt i64 %115, %116
  br i1 %117, label %118, label %121

118:                                              ; preds = %89
  %119 = load i64, ptr %10, align 8, !tbaa !18
  %120 = trunc i64 %119 to i32
  store i32 %120, ptr %15, align 4, !tbaa !25
  br label %121

121:                                              ; preds = %118, %89
  br label %122

122:                                              ; preds = %140, %121
  %123 = load i32, ptr %15, align 4, !tbaa !25
  %124 = icmp sgt i32 %123, 0
  br i1 %124, label %125, label %138

125:                                              ; preds = %122
  %126 = load ptr, ptr %7, align 8, !tbaa !16
  %127 = load i32, ptr %15, align 4, !tbaa !25
  %128 = sub nsw i32 %127, 1
  %129 = sext i32 %128 to i64
  %130 = getelementptr inbounds i8, ptr %126, i64 %129
  %131 = load i8, ptr %130, align 1, !tbaa !30
  %132 = zext i8 %131 to i64
  %133 = getelementptr inbounds nuw [256 x i8], ptr @sane_ctype, i64 0, i64 %132
  %134 = load i8, ptr %133, align 1, !tbaa !30
  %135 = zext i8 %134 to i32
  %136 = and i32 %135, 1
  %137 = icmp ne i32 %136, 0
  br label %138

138:                                              ; preds = %125, %122
  %139 = phi i1 [ false, %122 ], [ %137, %125 ]
  br i1 %139, label %140, label %143

140:                                              ; preds = %138
  %141 = load i32, ptr %15, align 4, !tbaa !25
  %142 = add nsw i32 %141, -1
  store i32 %142, ptr %15, align 4, !tbaa !25
  br label %122, !llvm.loop !80

143:                                              ; preds = %138
  %144 = load ptr, ptr %9, align 8, !tbaa !16
  %145 = load ptr, ptr %7, align 8, !tbaa !16
  %146 = load i32, ptr %15, align 4, !tbaa !25
  %147 = sext i32 %146 to i64
  call void @llvm.memcpy.p0.p0.i64(ptr align 1 %144, ptr align 1 %145, i64 %147, i1 false)
  %148 = load i32, ptr %15, align 4, !tbaa !25
  %149 = sext i32 %148 to i64
  store i64 %149, ptr %6, align 8
  store i32 1, ptr %17, align 4
  br label %150

150:                                              ; preds = %143, %88, %76
  call void @llvm.lifetime.end.p0(i64 4, ptr %15) #9
  call void @llvm.lifetime.end.p0(i64 4, ptr %14) #9
  call void @llvm.lifetime.end.p0(i64 16, ptr %13) #9
  call void @llvm.lifetime.end.p0(i64 8, ptr %12) #9
  %151 = load i64, ptr %6, align 8
  ret i64 %151
}