; Function Attrs: nounwind uwtable
define internal range(i64 -2147483648, 2147483648) i64 @ff_regexp(ptr noundef %0, i64 noundef %1, ptr noundef writeonly captures(none) %2, i64 noundef %3, ptr noundef readonly captures(none) %4) #0 {
  %6 = alloca [2 x %struct.regmatch_t], align 16
  call void @llvm.lifetime.start.p0(i64 16, ptr nonnull %6) #13
  %7 = icmp sgt i64 %1, 0
  br i1 %7, label %8, label %21

8:                                                ; preds = %5
  %9 = getelementptr i8, ptr %0, i64 %1
  %10 = getelementptr i8, ptr %9, i64 -1
  %11 = load i8, ptr %10, align 1, !tbaa !20
  %12 = icmp eq i8 %11, 10
  br i1 %12, label %13, label %21

13:                                               ; preds = %8
  %.not = icmp eq i64 %1, 1
  br i1 %.not, label %19, label %14

14:                                               ; preds = %13
  %15 = add nsw i64 %1, -2
  %16 = getelementptr inbounds nuw i8, ptr %0, i64 %15
  %17 = load i8, ptr %16, align 1, !tbaa !20
  %18 = icmp eq i8 %17, 13
  br i1 %18, label %21, label %19

19:                                               ; preds = %14, %13
  %20 = add nsw i64 %1, -1
  br label %21

21:                                               ; preds = %14, %19, %8, %5
  %.040 = phi i64 [ %20, %19 ], [ %1, %8 ], [ %1, %5 ], [ %15, %14 ]
  %22 = load i32, ptr %4, align 8, !tbaa !48
  %23 = icmp sgt i32 %22, 0
  br i1 %23, label %.lr.ph, label %.thread

.lr.ph:                                           ; preds = %21
  %24 = getelementptr inbounds nuw i8, ptr %4, i64 8
  %25 = trunc i64 %.040 to i32
  %26 = getelementptr inbounds nuw i8, ptr %6, i64 4
  br label %27

27:                                               ; preds = %.lr.ph, %34
  %indvars.iv = phi i64 [ 0, %.lr.ph ], [ %indvars.iv.next, %34 ]
  %28 = load ptr, ptr %24, align 8, !tbaa !52
  %29 = getelementptr inbounds nuw %struct.ff_reg, ptr %28, i64 %indvars.iv
  store i32 0, ptr %6, align 16, !tbaa !58
  store i32 %25, ptr %26, align 4, !tbaa !60
  %30 = call i32 @regexec(ptr noundef %29, ptr noundef %0, i64 noundef 2, ptr noundef nonnull %6, i32 noundef 4) #13
  %.not44 = icmp eq i32 %30, 0
  br i1 %.not44, label %31, label %34

31:                                               ; preds = %27
  %32 = getelementptr inbounds nuw i8, ptr %29, i64 64
  %33 = load i32, ptr %32, align 8, !tbaa !53
  %.not45 = icmp eq i32 %33, 0
  br i1 %.not45, label %..loopexit_crit_edge, label %.thread

..loopexit_crit_edge:                             ; preds = %31
  %.pre = load i32, ptr %4, align 8, !tbaa !48
  br label %.loopexit

34:                                               ; preds = %27
  %indvars.iv.next = add nuw nsw i64 %indvars.iv, 1
  %35 = load i32, ptr %4, align 8, !tbaa !48
  %36 = sext i32 %35 to i64
  %37 = icmp slt i64 %indvars.iv.next, %36
  br i1 %37, label %27, label %.loopexit, !llvm.loop !61

.loopexit:                                        ; preds = %34, %..loopexit_crit_edge
  %38 = phi i32 [ %.pre, %..loopexit_crit_edge ], [ %35, %34 ]
  %.03953.in = phi i64 [ %indvars.iv, %..loopexit_crit_edge ], [ %indvars.iv.next, %34 ]
  %.03953 = trunc i64 %.03953.in to i32
  %.not46 = icmp sgt i32 %38, %.03953
  br i1 %.not46, label %39, label %.thread

39:                                               ; preds = %.loopexit
  %40 = getelementptr inbounds nuw i8, ptr %6, i64 8
  %41 = load i32, ptr %40, align 8, !tbaa !58
  %42 = icmp sgt i32 %41, -1
  %43 = zext i1 %42 to i64
  %44 = getelementptr inbounds nuw [2 x %struct.regmatch_t], ptr %6, i64 0, i64 %43
  %45 = load i32, ptr %44, align 8, !tbaa !58
  %46 = sext i32 %45 to i64
  %47 = getelementptr inbounds i8, ptr %0, i64 %46
  %48 = getelementptr inbounds nuw i8, ptr %44, i64 4
  %49 = load i32, ptr %48, align 4, !tbaa !60
  %50 = sub nsw i32 %49, %45
  %51 = sext i32 %50 to i64
  %spec.select51 = call i64 @llvm.smin.i64(i64 %3, i64 %51)
  %spec.select = trunc i64 %spec.select51 to i32
  %invariant.gep = getelementptr i8, ptr %47, i64 -1
  %52 = icmp sgt i32 %spec.select, 0
  br i1 %52, label %.lr.ph56, label %.critedge

.lr.ph56:                                         ; preds = %39, %59
  %.13855 = phi i32 [ %60, %59 ], [ %spec.select, %39 ]
  %53 = zext nneg i32 %.13855 to i64
  %gep = getelementptr i8, ptr %invariant.gep, i64 %53
  %54 = load i8, ptr %gep, align 1, !tbaa !20
  %55 = zext i8 %54 to i64
  %56 = getelementptr inbounds nuw [256 x i8], ptr @sane_ctype, i64 0, i64 %55
  %57 = load i8, ptr %56, align 1, !tbaa !20
  %58 = and i8 %57, 1
  %.not47 = icmp eq i8 %58, 0
  br i1 %.not47, label %.critedge, label %59

59:                                               ; preds = %.lr.ph56
  %60 = add nsw i32 %.13855, -1
  %61 = icmp sgt i32 %.13855, 1
  br i1 %61, label %.lr.ph56, label %.critedge, !llvm.loop !62

.critedge:                                        ; preds = %.lr.ph56, %59, %39
  %.138.lcssa = phi i32 [ %spec.select, %39 ], [ 0, %59 ], [ %.13855, %.lr.ph56 ]
  %62 = sext i32 %.138.lcssa to i64
  call void @llvm.memcpy.p0.p0.i64(ptr align 1 %2, ptr align 1 %47, i64 %62, i1 false)
  br label %.thread

.thread:                                          ; preds = %21, %31, %.loopexit, %.critedge
  %.2 = phi i64 [ %62, %.critedge ], [ -1, %.loopexit ], [ -1, %31 ], [ -1, %21 ]
  call void @llvm.lifetime.end.p0(i64 16, ptr nonnull %6) #13
  ret i64 %.2
}